target datalayout = "e-m:e-p270:32:32-p271:32:32-p272:64:64-i64:64-i128:128-f80:128-n8:16:32:64-S128"
target triple = "x86_64-pc-linux-gnu"

%"class.icu_77::BytesTrie" = type <{ ptr, ptr, ptr, i32, [4 x i8] }>

; Function Attrs: inlinehint mustprogress uwtable
define linkonce_odr noundef i32 @_ZNK6icu_779BytesTrie8getValueEv(ptr noundef nonnull align 8 dereferenceable(28) %0) #6 comdat align 2 {
  %2 = alloca ptr, align 8
  %3 = alloca ptr, align 8
  %4 = alloca i32, align 4
  store ptr %0, ptr %2, align 8, !tbaa !47
  %5 = load ptr, ptr %2, align 8
  call void @llvm.lifetime.start.p0(i64 8, ptr %3) #10
  %6 = getelementptr inbounds nuw %"class.icu_77::BytesTrie", ptr %5, i32 0, i32 2
  %7 = load ptr, ptr %6, align 8, !tbaa !51
  store ptr %7, ptr %3, align 8, !tbaa !53
  call void @llvm.lifetime.start.p0(i64 4, ptr %4) #10
  %8 = load ptr, ptr %3, align 8, !tbaa !53
  %9 = getelementptr inbounds nuw i8, ptr %8, i32 1
  store ptr %9, ptr %3, align 8, !tbaa !53
  %10 = load i8, ptr %8, align 1, !tbaa !77
  %11 = zext i8 %10 to i32
  store i32 %11, ptr %4, align 4, !tbaa !40
  %12 = load ptr, ptr %3, align 8, !tbaa !53
  %13 = load i32, ptr %4, align 4, !tbaa !40
  %14 = ashr i32 %13, 1
  %15 = call noundef i32 @_ZN6icu_779BytesTrie9readValueEPKhi(ptr noundef %12, i32 noundef %14)
  call void @llvm.lifetime.end.p0(i64 4, ptr %4) #10
  call void @llvm.lifetime.end.p0(i64 8, ptr %3) #10
  ret i32 %15
}

; Function Attrs: mustprogress nounwind uwtable
define linkonce_odr noundef nonnull align 8 dereferenceable(28) ptr @_ZN6icu_779BytesTrie14resetToState64Em(ptr noundef nonnull align 8 dereferenceable(28) %0, i64 noundef %1) #4 comdat align 2 {
  %3 = alloca ptr, align 8
  %4 = alloca i64, align 8
  store ptr %0, ptr %3, align 8, !tbaa !47
  store i64 %1, ptr %4, align 8, !tbaa !68
  %5 = load ptr, ptr %3, align 8
  %6 = load i64, ptr %4, align 8, !tbaa !68
  %7 = lshr i64 %6, 59
  %8 = trunc i64 %7 to i32
  %9 = sub nsw i32 %8, 2
  %10 = getelementptr inbounds nuw %"class.icu_77::BytesTrie", ptr %5, i32 0, i32 3
  store i32 %9, ptr %10, align 8, !tbaa !52
  %11 = getelementptr inbounds nuw %"class.icu_77::BytesTrie", ptr %5, i32 0, i32 1
  %12 = load ptr, ptr %11, align 8, !tbaa !50
  %13 = load i64, ptr %4, align 8, !tbaa !68
  %14 = and i64 %13, 576460752303423487
  %15 = getelementptr inbounds nuw i8, ptr %12, i64 %14
  %16 = getelementptr inbounds nuw %"class.icu_77::BytesTrie", ptr %5, i32 0, i32 2
  store ptr %15, ptr %16, align 8, !tbaa !51
  ret ptr %5
}

; Function Attrs: mustprogress uwtable
define noundef i32 @_ZN6icu_7714LocaleDistance25getFallbackRegionDistanceERNS_9BytesTrieEm(ptr noundef nonnull align 8 dereferenceable(28) %0, i64 noundef %1) #0 align 2 {
  %3 = alloca ptr, align 8
  %4 = alloca i64, align 8
  %5 = alloca i32, align 4
  store ptr %0, ptr %3, align 8, !tbaa !47
  store i64 %1, ptr %4, align 8, !tbaa !68
  %6 = load ptr, ptr %3, align 8, !tbaa !47
  %7 = load i64, ptr %4, align 8, !tbaa !68
  %8 = call noundef nonnull align 8 dereferenceable(28) ptr @_ZN6icu_779BytesTrie14resetToState64Em(ptr noundef nonnull align 8 dereferenceable(28) %6, i64 noundef %7)
  %9 = call noundef i32 @_ZN6icu_779BytesTrie4nextEi(ptr noundef nonnull align 8 dereferenceable(28) %8, i32 noundef 42)
  call void @llvm.lifetime.start.p0(i64 4, ptr %5) #10
  %10 = load ptr, ptr %3, align 8, !tbaa !47
  %11 = call noundef i32 @_ZNK6icu_779BytesTrie8getValueEv(ptr noundef nonnull align 8 dereferenceable(28) %10)
  store i32 %11, ptr %5, align 4, !tbaa !40
  %12 = load i32, ptr %5, align 4, !tbaa !40
  call void @llvm.lifetime.end.p0(i64 4, ptr %5) #10
  ret i32 %12
}