; Function Attrs: mustprogress uwtable
define noundef i32 @_ZN6icu_7714LocaleDistance25getFallbackRegionDistanceERNS_9BytesTrieEm(ptr noundef nonnull align 8 dereferenceable(28) initializes((16, 28)) %0, i64 noundef %1) local_unnamed_addr #0 align 2 {
  %3 = lshr i64 %1, 59
  %4 = trunc nuw nsw i64 %3 to i32
  %5 = add nsw i32 %4, -2
  %6 = getelementptr inbounds nuw i8, ptr %0, i64 24
  store i32 %5, ptr %6, align 8, !tbaa !31
  %7 = getelementptr inbounds nuw i8, ptr %0, i64 8
  %8 = load ptr, ptr %7, align 8, !tbaa !29
  %9 = and i64 %1, 576460752303423487
  %10 = getelementptr inbounds nuw i8, ptr %8, i64 %9
  %11 = getelementptr inbounds nuw i8, ptr %0, i64 16
  store ptr %10, ptr %11, align 8, !tbaa !30
  %12 = tail call noundef i32 @_ZN6icu_779BytesTrie4nextEi(ptr noundef nonnull align 8 dereferenceable(28) %0, i32 noundef 42)
  %13 = load ptr, ptr %11, align 8, !tbaa !30
  %14 = getelementptr inbounds nuw i8, ptr %13, i64 1
  %15 = load i8, ptr %13, align 1, !tbaa !54
  %16 = lshr i8 %15, 1
  %17 = zext nneg i8 %16 to i32
  %18 = tail call noundef i32 @_ZN6icu_779BytesTrie9readValueEPKhi(ptr noundef nonnull %14, i32 noundef %17)
  ret i32 %18
}